; Function Attrs: mustprogress nofree norecurse nosync nounwind willreturn memory(argmem: readwrite) uwtable
define internal nonnull ptr @UnrollDouble1Chan(ptr nocapture readnone %0, ptr nocapture noundef writeonly %1, ptr noundef readonly %2, i32 %3) #3 {
  %5 = load double, ptr %2, align 8
  %6 = fmul double %5, 6.553500e+04
  %7 = fadd double %6, 5.000000e-01
  %8 = fcmp ugt double %7, 0.000000e+00
  br i1 %8, label %9, label %_cmsQuickSaturateWord.exit

9:                                                ; preds = %4
  %10 = fcmp ult double %7, 6.553500e+04
  br i1 %10, label %11, label %_cmsQuickSaturateWord.exit

11:                                               ; preds = %9
  %12 = fadd double %7, -3.276700e+04
  %13 = tail call double @llvm.floor.f64(double %12)
  %14 = fptosi double %13 to i32
  %15 = trunc i32 %14 to i16
  %16 = add i16 %15, 32767
  br label %_cmsQuickSaturateWord.exit

_cmsQuickSaturateWord.exit:                       ; preds = %4, %9, %11
  %.0.i = phi i16 [ %16, %11 ], [ 0, %4 ], [ -1, %9 ]
  %17 = getelementptr inbounds i8, ptr %1, i64 4
  store i16 %.0.i, ptr %17, align 2
  %18 = getelementptr inbounds i8, ptr %1, i64 2
  store i16 %.0.i, ptr %18, align 2
  store i16 %.0.i, ptr %1, align 2
  %19 = getelementptr inbounds i8, ptr %2, i64 8
  ret ptr %19
}